	.file	"tiny_race.c"
	.text
	.comm	Global,4,4
	.globl	Thread1
	.type	Thread1, @function
Thread1:
.LFB5:
	.cfi_startproc
	pushq	%rbp
	.cfi_def_cfa_offset 16
	.cfi_offset 6, -16
	movq	%rsp, %rbp
	.cfi_def_cfa_register 6
	movq	%rdi, -8(%rbp)
	movl	$42, Global(%rip)
	movq	-8(%rbp), %rax
	popq	%rbp
	.cfi_def_cfa 7, 8
	ret
	.cfi_endproc
.LFE5:
	.size	Thread1, .-Thread1
	.globl	Static
	.type	Static, @function
Static:
.LFB6:
	.cfi_startproc
	pushq	%rbp
	.cfi_def_cfa_offset 16
	.cfi_offset 6, -16
	movq	%rsp, %rbp
	.cfi_def_cfa_register 6
	movq	%rdi, -8(%rbp)
	movl	a.3272(%rip), %eax
	addl	$1, %eax
	movl	%eax, a.3272(%rip)
	movq	-8(%rbp), %rax
	popq	%rbp
	.cfi_def_cfa 7, 8
	ret
	.cfi_endproc
.LFE6:
	.size	Static, .-Static
	.globl	Malloc
	.type	Malloc, @function
Malloc:
.LFB7:
	.cfi_startproc
	pushq	%rbp
	.cfi_def_cfa_offset 16
	.cfi_offset 6, -16
	movq	%rsp, %rbp
	.cfi_def_cfa_register 6
	subq	$32, %rsp
	movq	%rdi, -24(%rbp)
	movl	$100, %edi
	call	malloc@PLT
	movq	%rax, -8(%rbp)
	addq	$2, -8(%rbp)
	movq	-24(%rbp), %rax
	leave
	.cfi_def_cfa 7, 8
	ret
	.cfi_endproc
.LFE7:
	.size	Malloc, .-Malloc
	.globl	I
	.type	I, @function
I:
.LFB8:
	.cfi_startproc
	pushq	%rbp
	.cfi_def_cfa_offset 16
	.cfi_offset 6, -16
	movq	%rsp, %rbp
	.cfi_def_cfa_register 6
	subq	$16, %rsp
	movq	%rdi, -8(%rbp)
	call	getchar@PLT
	movq	-8(%rbp), %rax
	leave
	.cfi_def_cfa 7, 8
	ret
	.cfi_endproc
.LFE8:
	.size	I, .-I
	.globl	sub
	.type	sub, @function
sub:
.LFB9:
	.cfi_startproc
	pushq	%rbp
	.cfi_def_cfa_offset 16
	.cfi_offset 6, -16
	movq	%rsp, %rbp
	.cfi_def_cfa_register 6
	subq	$16, %rsp
	movq	%rdi, -8(%rbp)
	movl	$0, %edi
	call	I
	movq	-8(%rbp), %rax
	leave
	.cfi_def_cfa 7, 8
	ret
	.cfi_endproc
.LFE9:
	.size	sub, .-sub
	.globl	normal
	.type	normal, @function
normal:
.LFB10:
	.cfi_startproc
	pushq	%rbp
	.cfi_def_cfa_offset 16
	.cfi_offset 6, -16
	movq	%rsp, %rbp
	.cfi_def_cfa_register 6
	movq	%rdi, -8(%rbp)
	movq	-8(%rbp), %rax
	popq	%rbp
	.cfi_def_cfa 7, 8
	ret
	.cfi_endproc
.LFE10:
	.size	normal, .-normal
	.globl	circle2
	.type	circle2, @function
circle2:
.LFB11:
	.cfi_startproc
	pushq	%rbp
	.cfi_def_cfa_offset 16
	.cfi_offset 6, -16
	movq	%rsp, %rbp
	.cfi_def_cfa_register 6
	subq	$16, %rsp
	movq	%rdi, -8(%rbp)
	movq	-8(%rbp), %rax
	movq	%rax, %rdi
	call	circle0
	movq	-8(%rbp), %rax
	leave
	.cfi_def_cfa 7, 8
	ret
	.cfi_endproc
.LFE11:
	.size	circle2, .-circle2
	.globl	circle1
	.type	circle1, @function
circle1:
.LFB12:
	.cfi_startproc
	pushq	%rbp
	.cfi_def_cfa_offset 16
	.cfi_offset 6, -16
	movq	%rsp, %rbp
	.cfi_def_cfa_register 6
	subq	$16, %rsp
	movq	%rdi, -8(%rbp)
	movq	-8(%rbp), %rax
	movq	%rax, %rdi
	call	circle2
	movq	-8(%rbp), %rax
	movq	%rax, %rdi
	call	normal
	movq	-8(%rbp), %rax
	leave
	.cfi_def_cfa 7, 8
	ret
	.cfi_endproc
.LFE12:
	.size	circle1, .-circle1
	.section	.rodata
.LC0:
	.string	"hh"
	.text
	.globl	circle0
	.type	circle0, @function
circle0:
.LFB13:
	.cfi_startproc
	pushq	%rbp
	.cfi_def_cfa_offset 16
	.cfi_offset 6, -16
	movq	%rsp, %rbp
	.cfi_def_cfa_register 6
	subq	$16, %rsp
	movq	%rdi, -8(%rbp)
	leaq	.LC0(%rip), %rdi
	call	puts@PLT
	movq	-8(%rbp), %rax
	movq	%rax, %rdi
	call	circle1
	movq	-8(%rbp), %rax
	leave
	.cfi_def_cfa 7, 8
	ret
	.cfi_endproc
.LFE13:
	.size	circle0, .-circle0
	.comm	Global1,4,4
	.globl	main
	.type	main, @function
main:
.LFB14:
	.cfi_startproc
	pushq	%rbp
	.cfi_def_cfa_offset 16
	.cfi_offset 6, -16
	movq	%rsp, %rbp
	.cfi_def_cfa_register 6
	subq	$16, %rsp
	movq	%fs:40, %rax
	movq	%rax, -8(%rbp)
	xorl	%eax, %eax
	leaq	-16(%rbp), %rax
	movl	$0, %ecx
	leaq	Thread1(%rip), %rdx
	movl	$0, %esi
	movq	%rax, %rdi
	call	pthread_create@PLT
	movl	$43, Global(%rip)
	movq	-16(%rbp), %rax
	movl	$0, %esi
	movq	%rax, %rdi
	call	pthread_join@PLT
	movl	Global(%rip), %eax
	movq	-8(%rbp), %rdx
	xorq	%fs:40, %rdx
	je	.L21
	call	__stack_chk_fail@PLT
.L21:
	leave
	.cfi_def_cfa 7, 8
	ret
	.cfi_endproc
.LFE14:
	.size	main, .-main
	.local	a.3272
	.comm	a.3272,4,4
	.ident	"GCC: (Ubuntu 7.5.0-3ubuntu1~18.04) 7.5.0"
	.section	.note.GNU-stack,"",@progbits
